; Function Attrs: mustprogress uwtable
define internal void @_ZN12_GLOBAL__N_114ReflectionTest5SetUpEv(ptr nocapture noundef nonnull align 8 dereferenceable(24) %this) unnamed_addr #3 align 2 personality ptr @__gxx_personality_v0 {
entry:
  %call.i = tail call noalias noundef nonnull dereferenceable(8) ptr @_Znwm(i64 noundef 8) #26, !noalias !42
  invoke void @_ZN4absl9FlagSaverC1Ev(ptr noundef nonnull align 8 dereferenceable(8) %call.i)
          to label %_ZSt11make_uniqueIN4absl9FlagSaverEJEENSt8__detail9_MakeUniqIT_E15__single_objectEDpOT0_.exit unwind label %lpad.i, !noalias !42

lpad.i:                                           ; preds = %entry
  %0 = landingpad { ptr, i32 }
          cleanup
  tail call void @_ZdlPv(ptr noundef nonnull %call.i) #27, !noalias !42
  resume { ptr, i32 } %0

_ZSt11make_uniqueIN4absl9FlagSaverEJEENSt8__detail9_MakeUniqIT_E15__single_objectEDpOT0_.exit: ; preds = %entry
  %flag_saver_ = getelementptr inbounds i8, ptr %this, i64 16
  %1 = load ptr, ptr %flag_saver_, align 8
  store ptr %call.i, ptr %flag_saver_, align 8
  %tobool.not.i.i.i.i = icmp eq ptr %1, null
  br i1 %tobool.not.i.i.i.i, label %_ZNSt10unique_ptrIN4absl9FlagSaverESt14default_deleteIS1_EED2Ev.exit, label %_ZNKSt14default_deleteIN4absl9FlagSaverEEclEPS1_.exit.i.i.i.i

_ZNKSt14default_deleteIN4absl9FlagSaverEEclEPS1_.exit.i.i.i.i: ; preds = %_ZSt11make_uniqueIN4absl9FlagSaverEJEENSt8__detail9_MakeUniqIT_E15__single_objectEDpOT0_.exit
  tail call void @_ZN4absl9FlagSaverD1Ev(ptr noundef nonnull align 8 dereferenceable(8) %1) #28
  tail call void @_ZdlPv(ptr noundef nonnull %1) #27
  br label %_ZNSt10unique_ptrIN4absl9FlagSaverESt14default_deleteIS1_EED2Ev.exit

_ZNSt10unique_ptrIN4absl9FlagSaverESt14default_deleteIS1_EED2Ev.exit: ; preds = %_ZNKSt14default_deleteIN4absl9FlagSaverEEclEPS1_.exit.i.i.i.i, %_ZSt11make_uniqueIN4absl9FlagSaverEJEENSt8__detail9_MakeUniqIT_E15__single_objectEDpOT0_.exit
  ret void
}